; ModuleID = 'source-C-CXX/2/2670.c'
source_filename = "source-C-CXX/2/2670.c"
target datalayout = "e-m:e-p270:32:32-p271:32:32-p272:64:64-i64:64-f80:128-n8:16:32:64-S128"
target triple = "x86_64-pc-linux-gnu"

@.str = private unnamed_addr constant [6 x i8] c"%d %d\00", align 1
@.str.1 = private unnamed_addr constant [3 x i8] c"%d\00", align 1
@.str.2 = private unnamed_addr constant [4 x i8] c"yes\00", align 1
@.str.3 = private unnamed_addr constant [3 x i8] c"no\00", align 1

; Function Attrs: nofree nounwind sspstrong uwtable
define dso_local i32 @main() local_unnamed_addr #0 {
  %1 = alloca i32, align 4
  %2 = alloca i32, align 4
  %3 = alloca [1000 x i32], align 16
  %4 = bitcast i32* %1 to i8*
  call void @llvm.lifetime.start.p0i8(i64 4, i8* nonnull %4) #3
  %5 = bitcast i32* %2 to i8*
  call void @llvm.lifetime.start.p0i8(i64 4, i8* nonnull %5) #3
  %6 = bitcast [1000 x i32]* %3 to i8*
  call void @llvm.lifetime.start.p0i8(i64 4000, i8* nonnull %6) #3
  %7 = call i32 (i8*, ...) @__isoc99_scanf(i8* getelementptr inbounds ([6 x i8], [6 x i8]* @.str, i64 0, i64 0), i32* nonnull %1, i32* nonnull %2)
  %8 = load i32, i32* %1, align 4, !tbaa !5
  %9 = icmp sgt i32 %8, 0
  br i1 %9, label %12, label %56

10:                                               ; preds = %12
  %11 = icmp sgt i32 %17, 1
  br i1 %11, label %20, label %56

12:                                               ; preds = %0, %12
  %13 = phi i64 [ %16, %12 ], [ 0, %0 ]
  %14 = getelementptr inbounds [1000 x i32], [1000 x i32]* %3, i64 0, i64 %13
  %15 = call i32 (i8*, ...) @__isoc99_scanf(i8* getelementptr inbounds ([3 x i8], [3 x i8]* @.str.1, i64 0, i64 0), i32* nonnull %14)
  %16 = add nuw nsw i64 %13, 1
  %17 = load i32, i32* %1, align 4, !tbaa !5
  %18 = sext i32 %17 to i64
  %19 = icmp slt i64 %16, %18
  br i1 %19, label %12, label %10, !llvm.loop !9

20:                                               ; preds = %10, %50
  %21 = phi i32 [ %51, %50 ], [ %17, %10 ]
  %22 = phi i64 [ %24, %50 ], [ 0, %10 ]
  %23 = phi i64 [ %55, %50 ], [ 1, %10 ]
  %24 = add nuw nsw i64 %22, 1
  %25 = load i32, i32* %2, align 4
  %26 = sext i32 %21 to i64
  %27 = icmp slt i64 %24, %26
  br i1 %27, label %28, label %43

28:                                               ; preds = %20
  %29 = getelementptr inbounds [1000 x i32], [1000 x i32]* %3, i64 0, i64 %22
  %30 = load i32, i32* %29, align 4, !tbaa !5
  %31 = zext i32 %21 to i64
  br label %34

32:                                               ; preds = %34
  %33 = icmp eq i64 %40, %31
  br i1 %33, label %43, label %34, !llvm.loop !11

34:                                               ; preds = %28, %32
  %35 = phi i64 [ %23, %28 ], [ %40, %32 ]
  %36 = getelementptr inbounds [1000 x i32], [1000 x i32]* %3, i64 0, i64 %35
  %37 = load i32, i32* %36, align 4, !tbaa !5
  %38 = add nsw i32 %30, %37
  %39 = icmp eq i32 %38, %25
  %40 = add nuw nsw i64 %35, 1
  br i1 %39, label %41, label %32

41:                                               ; preds = %34
  %42 = call i32 (i8*, ...) @printf(i8* nonnull dereferenceable(1) getelementptr inbounds ([4 x i8], [4 x i8]* @.str.2, i64 0, i64 0))
  br label %56

43:                                               ; preds = %32, %20
  %44 = add nsw i32 %21, -2
  %45 = zext i32 %44 to i64
  %46 = icmp eq i64 %22, %45
  br i1 %46, label %47, label %50

47:                                               ; preds = %43
  %48 = call i32 (i8*, ...) @printf(i8* nonnull dereferenceable(1) getelementptr inbounds ([3 x i8], [3 x i8]* @.str.3, i64 0, i64 0))
  %49 = load i32, i32* %1, align 4, !tbaa !5
  br label %50

50:                                               ; preds = %43, %47
  %51 = phi i32 [ %21, %43 ], [ %49, %47 ]
  %52 = add nsw i32 %51, -1
  %53 = sext i32 %52 to i64
  %54 = icmp slt i64 %24, %53
  %55 = add nuw nsw i64 %23, 1
  br i1 %54, label %20, label %56, !llvm.loop !12

56:                                               ; preds = %50, %0, %10, %41
  call void @llvm.lifetime.end.p0i8(i64 4000, i8* nonnull %6) #3
  call void @llvm.lifetime.end.p0i8(i64 4, i8* nonnull %5) #3
  call void @llvm.lifetime.end.p0i8(i64 4, i8* nonnull %4) #3
  ret i32 0
}

; Function Attrs: argmemonly mustprogress nofree nosync nounwind willreturn
declare void @llvm.lifetime.start.p0i8(i64 immarg, i8* nocapture) #1

; Function Attrs: nofree nounwind
declare noundef i32 @__isoc99_scanf(i8* nocapture noundef readonly, ...) local_unnamed_addr #2

; Function Attrs: nofree nounwind
declare noundef i32 @printf(i8* nocapture noundef readonly, ...) local_unnamed_addr #2

; Function Attrs: argmemonly mustprogress nofree nosync nounwind willreturn
declare void @llvm.lifetime.end.p0i8(i64 immarg, i8* nocapture) #1


!llvm.module.flags = !{!0, !1, !2, !3}
!llvm.ident = !{!4}

!0 = !{i32 1, !"wchar_size", i32 4}
!1 = !{i32 7, !"PIC Level", i32 2}
!2 = !{i32 7, !"PIE Level", i32 2}
!3 = !{i32 7, !"uwtable", i32 1}
!4 = !{!"clang version 13.0.0"}
!5 = !{!6, !6, i64 0}
!6 = !{!"int", !7, i64 0}
!7 = !{!"omnipotent char", !8, i64 0}
!8 = !{!"Simple C/C++ TBAA"}
!9 = distinct !{!9, !10}
!10 = !{!"llvm.loop.mustprogress"}
!11 = distinct !{!11, !10}
!12 = distinct !{!12, !10}
